target datalayout = "e-m:e-p270:32:32-p271:32:32-p272:64:64-i64:64-i128:128-f80:128-n8:16:32:64-S128"
target triple = "x86_64-unknown-linux-gnu"

%struct.mi_stats_s = type { %struct.mi_stat_count_s, %struct.mi_stat_count_s, %struct.mi_stat_count_s, %struct.mi_stat_count_s, %struct.mi_stat_count_s, %struct.mi_stat_count_s, %struct.mi_stat_count_s, %struct.mi_stat_count_s, %struct.mi_stat_count_s, %struct.mi_stat_count_s, %struct.mi_stat_count_s, %struct.mi_stat_count_s, %struct.mi_stat_count_s, %struct.mi_stat_count_s, %struct.mi_stat_count_s, %struct.mi_stat_counter_s, %struct.mi_stat_counter_s, %struct.mi_stat_counter_s, %struct.mi_stat_counter_s, %struct.mi_stat_counter_s, %struct.mi_stat_counter_s, %struct.mi_stat_counter_s, %struct.mi_stat_counter_s, %struct.mi_stat_counter_s, %struct.mi_stat_counter_s }
%struct.mi_stat_count_s = type { i64, i64, i64, i64 }
%struct.mi_stat_counter_s = type { i64, i64 }

@_mi_stats_main = external global %struct.mi_stats_s, align 64
@.str.6 = private unnamed_addr constant [77 x i8] c"unable to free OS memory (error: %d (0x%x), size: 0x%zx bytes, address: %p)\0A\00", align 1

; Function Attrs: nounwind uwtable
define internal void @mi_os_prim_free(ptr noundef %addr, i64 noundef %size, i1 noundef zeroext %still_committed, ptr noundef %tld_stats) #0 {
entry:
  %addr.addr = alloca ptr, align 8
  %size.addr = alloca i64, align 8
  %still_committed.addr = alloca i8, align 1
  %tld_stats.addr = alloca ptr, align 8
  %err = alloca i32, align 4
  %stats = alloca ptr, align 8
  store ptr %addr, ptr %addr.addr, align 8
  store i64 %size, ptr %size.addr, align 8
  %frombool = zext i1 %still_committed to i8
  store i8 %frombool, ptr %still_committed.addr, align 1
  store ptr %tld_stats, ptr %tld_stats.addr, align 8
  %0 = load ptr, ptr %addr.addr, align 8
  %cmp = icmp eq ptr %0, null
  br i1 %cmp, label %if.then, label %lor.lhs.false

lor.lhs.false:                                    ; preds = %entry
  %1 = load i64, ptr %size.addr, align 8
  %cmp1 = icmp eq i64 %1, 0
  br i1 %cmp1, label %if.then, label %if.end

if.then:                                          ; preds = %lor.lhs.false, %entry
  br label %return

if.end:                                           ; preds = %lor.lhs.false
  %2 = load ptr, ptr %addr.addr, align 8
  %3 = load i64, ptr %size.addr, align 8
  %call = call i32 @_mi_prim_free(ptr noundef %2, i64 noundef %3) #5
  store i32 %call, ptr %err, align 4
  %4 = load i32, ptr %err, align 4
  %cmp2 = icmp ne i32 %4, 0
  br i1 %cmp2, label %if.then3, label %if.end4

if.then3:                                         ; preds = %if.end
  %5 = load i32, ptr %err, align 4
  %6 = load i32, ptr %err, align 4
  %7 = load i64, ptr %size.addr, align 8
  %8 = load ptr, ptr %addr.addr, align 8
  call void (ptr, ...) @_mi_warning_message(ptr noundef @.str.6, i32 noundef %5, i32 noundef %6, i64 noundef %7, ptr noundef %8) #5
  br label %if.end4

if.end4:                                          ; preds = %if.then3, %if.end
  store ptr @_mi_stats_main, ptr %stats, align 8
  %9 = load i8, ptr %still_committed.addr, align 1
  %tobool = trunc i8 %9 to i1
  br i1 %tobool, label %if.then5, label %if.end6

if.then5:                                         ; preds = %if.end4
  %10 = load ptr, ptr %stats, align 8
  %committed = getelementptr inbounds %struct.mi_stats_s, ptr %10, i32 0, i32 3
  %11 = load i64, ptr %size.addr, align 8
  call void @_mi_stat_decrease(ptr noundef %committed, i64 noundef %11) #5
  br label %if.end6

if.end6:                                          ; preds = %if.then5, %if.end4
  %12 = load ptr, ptr %stats, align 8
  %reserved = getelementptr inbounds %struct.mi_stats_s, ptr %12, i32 0, i32 2
  %13 = load i64, ptr %size.addr, align 8
  call void @_mi_stat_decrease(ptr noundef %reserved, i64 noundef %13) #5
  br label %return

return:                                           ; preds = %if.end6, %if.then
  ret void
}