; Function Attrs: nounwind uwtable
define internal fastcc void @mi_os_prim_free(ptr noundef %addr, i64 noundef %size, i1 noundef zeroext %still_committed) unnamed_addr #1 {
entry:
  %cmp = icmp eq ptr %addr, null
  %cmp1 = icmp eq i64 %size, 0
  %or.cond = or i1 %cmp, %cmp1
  br i1 %or.cond, label %return, label %if.end

if.end:                                           ; preds = %entry
  %call = tail call i32 @_mi_prim_free(ptr noundef nonnull %addr, i64 noundef %size) #7
  %cmp2.not = icmp eq i32 %call, 0
  br i1 %cmp2.not, label %if.end4, label %if.then3

if.then3:                                         ; preds = %if.end
  tail call void (ptr, ...) @_mi_warning_message(ptr noundef nonnull @.str.6, i32 noundef %call, i32 noundef %call, i64 noundef %size, ptr noundef nonnull %addr) #7
  br label %if.end4

if.end4:                                          ; preds = %if.then3, %if.end
  br i1 %still_committed, label %if.then5, label %if.end6

if.then5:                                         ; preds = %if.end4
  tail call void @_mi_stat_decrease(ptr noundef nonnull getelementptr inbounds nuw (i8, ptr @_mi_stats_main, i64 96), i64 noundef %size) #7
  br label %if.end6

if.end6:                                          ; preds = %if.then5, %if.end4
  tail call void @_mi_stat_decrease(ptr noundef nonnull getelementptr inbounds nuw (i8, ptr @_mi_stats_main, i64 64), i64 noundef %size) #7
  br label %return

return:                                           ; preds = %entry, %if.end6
  ret void
}